target datalayout = "e-m:e-p270:32:32-p271:32:32-p272:64:64-i64:64-i128:128-f80:128-n8:16:32:64-S128"
target triple = "x86_64-pc-linux-gnu"

%struct.prolog_state = type { ptr, i32, i32 }

; Function Attrs: nounwind uwtable
define internal i32 @common(ptr noundef %0, i32 noundef %1) #0 {
  %3 = alloca ptr, align 8
  %4 = alloca i32, align 4
  store ptr %0, ptr %3, align 8, !tbaa !4
  store i32 %1, ptr %4, align 4, !tbaa !12
  %5 = load ptr, ptr %3, align 8, !tbaa !4
  %6 = getelementptr inbounds nuw %struct.prolog_state, ptr %5, i32 0, i32 0
  store ptr @error, ptr %6, align 8, !tbaa !9
  ret i32 -1
}

; Function Attrs: nounwind uwtable
define internal i32 @element3(ptr noundef %0, i32 noundef %1, ptr noundef %2, ptr noundef %3, ptr noundef %4) #0 {
  %6 = alloca i32, align 4
  %7 = alloca ptr, align 8
  %8 = alloca i32, align 4
  %9 = alloca ptr, align 8
  %10 = alloca ptr, align 8
  %11 = alloca ptr, align 8
  store ptr %0, ptr %7, align 8, !tbaa !4
  store i32 %1, ptr %8, align 4, !tbaa !12
  store ptr %2, ptr %9, align 8, !tbaa !13
  store ptr %3, ptr %10, align 8, !tbaa !13
  store ptr %4, ptr %11, align 8, !tbaa !15
  %12 = load i32, ptr %8, align 4, !tbaa !12
  switch i32 %12, label %27 [
    i32 15, label %13
    i32 24, label %14
    i32 36, label %19
    i32 21, label %24
  ]

13:                                               ; preds = %5
  store i32 39, ptr %6, align 4
  br label %31

14:                                               ; preds = %5
  %15 = load ptr, ptr %7, align 8, !tbaa !4
  %16 = getelementptr inbounds nuw %struct.prolog_state, ptr %15, i32 0, i32 0
  store ptr @declClose, ptr %16, align 8, !tbaa !9
  %17 = load ptr, ptr %7, align 8, !tbaa !4
  %18 = getelementptr inbounds nuw %struct.prolog_state, ptr %17, i32 0, i32 2
  store i32 39, ptr %18, align 4, !tbaa !20
  store i32 45, ptr %6, align 4
  br label %31

19:                                               ; preds = %5
  %20 = load ptr, ptr %7, align 8, !tbaa !4
  %21 = getelementptr inbounds nuw %struct.prolog_state, ptr %20, i32 0, i32 0
  store ptr @declClose, ptr %21, align 8, !tbaa !9
  %22 = load ptr, ptr %7, align 8, !tbaa !4
  %23 = getelementptr inbounds nuw %struct.prolog_state, ptr %22, i32 0, i32 2
  store i32 39, ptr %23, align 4, !tbaa !20
  store i32 46, ptr %6, align 4
  br label %31

24:                                               ; preds = %5
  %25 = load ptr, ptr %7, align 8, !tbaa !4
  %26 = getelementptr inbounds nuw %struct.prolog_state, ptr %25, i32 0, i32 0
  store ptr @element4, ptr %26, align 8, !tbaa !9
  store i32 39, ptr %6, align 4
  br label %31

27:                                               ; preds = %5
  %28 = load ptr, ptr %7, align 8, !tbaa !4
  %29 = load i32, ptr %8, align 4, !tbaa !12
  %30 = call i32 @common(ptr noundef %28, i32 noundef %29)
  store i32 %30, ptr %6, align 4
  br label %31

31:                                               ; preds = %27, %24, %19, %14, %13
  %32 = load i32, ptr %6, align 4
  ret i32 %32
}